; Function Attrs: mustprogress uwtable
define void @_ZN6icu_7522CompoundTransliteratorC2ERKS0_(ptr noundef nonnull align 8 dereferenceable(104) %this, ptr noundef nonnull align 8 dereferenceable(104) %t) unnamed_addr #1 align 2 personality ptr @__gxx_personality_v0 {
entry:
  tail call void @_ZN6icu_7514TransliteratorC2ERKS0_(ptr noundef nonnull align 8 dereferenceable(84) %this, ptr noundef nonnull align 8 dereferenceable(84) %t)
  store ptr getelementptr inbounds ({ [21 x ptr] }, ptr @_ZTVN6icu_7522CompoundTransliteratorE, i64 0, i32 0, i64 2), ptr %this, align 8
  %trans = getelementptr inbounds i8, ptr %this, i64 88
  store ptr null, ptr %trans, align 8
  %count = getelementptr inbounds i8, ptr %this, i64 96
  store i32 0, ptr %count, align 8
  %numAnonymousRBTs = getelementptr inbounds i8, ptr %this, i64 100
  store i32 -1, ptr %numAnonymousRBTs, align 4
  %call = invoke noundef nonnull align 8 dereferenceable(104) ptr @_ZN6icu_7522CompoundTransliteratoraSERKS0_(ptr noundef nonnull align 8 dereferenceable(104) %this, ptr noundef nonnull align 8 dereferenceable(104) %t)
          to label %invoke.cont unwind label %lpad

invoke.cont:                                      ; preds = %entry
  ret void

lpad:                                             ; preds = %entry
  %0 = landingpad { ptr, i32 }
          cleanup
  tail call void @_ZN6icu_7514TransliteratorD2Ev(ptr noundef nonnull align 8 dereferenceable(84) %this) #13
  resume { ptr, i32 } %0
}